; Function Attrs: mustprogress nofree norecurse nosync nounwind willreturn memory(read, inaccessiblemem: none) uwtable
define dso_local noundef i32 @_ZNK4llvm19MachineTraceMetrics5Trace13getInstrSlackERKNS_12MachineInstrE(ptr noundef nonnull readonly align 8 captures(none) dereferenceable(16) %0, ptr noundef nonnull align 8 dereferenceable(70) %1) local_unnamed_addr #5 align 2 {
  %3 = load ptr, ptr %0, align 8
  %4 = getelementptr inbounds nuw i8, ptr %3, i64 376
  %5 = load ptr, ptr %4, align 8
  %6 = getelementptr inbounds nuw i8, ptr %3, i64 392
  %7 = load i32, ptr %6, align 8
  %8 = icmp eq i32 %7, 0
  br i1 %8, label %_ZNK4llvm19MachineTraceMetrics5Trace14getInstrCyclesERKNS_12MachineInstrE.exit, label %9

9:                                                ; preds = %2
  %10 = ptrtoint ptr %1 to i64
  %11 = trunc i64 %10 to i32
  %12 = lshr i32 %11, 4
  %13 = lshr i32 %11, 9
  %14 = xor i32 %12, %13
  %15 = add i32 %7, -1
  %.01618.i.i.i.i = and i32 %15, %14
  %16 = zext nneg i32 %.01618.i.i.i.i to i64
  %17 = getelementptr inbounds nuw %"struct.llvm::detail::DenseMapPair.313", ptr %5, i64 %16
  %18 = load ptr, ptr %17, align 8
  %19 = icmp eq ptr %1, %18
  br i1 %19, label %_ZNK4llvm12DenseMapBaseINS_8DenseMapIPKNS_12MachineInstrENS_19MachineTraceMetrics11InstrCyclesENS_12DenseMapInfoIS4_vEENS_6detail12DenseMapPairIS4_S6_EEEES4_S6_S8_SB_E6doFindIS4_EEPKSB_RKT_.exit.i.i, label %.lr.ph.i.i.i.i

.lr.ph.i.i.i.i:                                   ; preds = %9, %22
  %20 = phi ptr [ %27, %22 ], [ %18, %9 ]
  %.01620.i.i.i.i = phi i32 [ %.016.i.i.i.i, %22 ], [ %.01618.i.i.i.i, %9 ]
  %.01519.i.i.i.i = phi i32 [ %23, %22 ], [ 1, %9 ]
  %21 = icmp eq ptr %20, inttoptr (i64 -4096 to ptr)
  br i1 %21, label %_ZNK4llvm19MachineTraceMetrics5Trace14getInstrCyclesERKNS_12MachineInstrE.exit, label %22

22:                                               ; preds = %.lr.ph.i.i.i.i
  %23 = add i32 %.01519.i.i.i.i, 1
  %24 = add i32 %.01519.i.i.i.i, %.01620.i.i.i.i
  %.016.i.i.i.i = and i32 %24, %15
  %25 = zext i32 %.016.i.i.i.i to i64
  %26 = getelementptr inbounds nuw %"struct.llvm::detail::DenseMapPair.313", ptr %5, i64 %25
  %27 = load ptr, ptr %26, align 8
  %28 = icmp eq ptr %1, %27
  br i1 %28, label %_ZNK4llvm12DenseMapBaseINS_8DenseMapIPKNS_12MachineInstrENS_19MachineTraceMetrics11InstrCyclesENS_12DenseMapInfoIS4_vEENS_6detail12DenseMapPairIS4_S6_EEEES4_S6_S8_SB_E6doFindIS4_EEPKSB_RKT_.exit.i.i, label %.lr.ph.i.i.i.i, !llvm.loop !13

_ZNK4llvm12DenseMapBaseINS_8DenseMapIPKNS_12MachineInstrENS_19MachineTraceMetrics11InstrCyclesENS_12DenseMapInfoIS4_vEENS_6detail12DenseMapPairIS4_S6_EEEES4_S6_S8_SB_E6doFindIS4_EEPKSB_RKT_.exit.i.i: ; preds = %22, %9
  %29 = phi i64 [ %16, %9 ], [ %25, %22 ]
  %30 = getelementptr inbounds nuw %"struct.llvm::detail::DenseMapPair.313", ptr %5, i64 %29, i32 0, i32 1
  %.sroa.0.0.copyload.i.i = load i64, ptr %30, align 4
  br label %_ZNK4llvm19MachineTraceMetrics5Trace14getInstrCyclesERKNS_12MachineInstrE.exit

_ZNK4llvm19MachineTraceMetrics5Trace14getInstrCyclesERKNS_12MachineInstrE.exit: ; preds = %.lr.ph.i.i.i.i, %2, %_ZNK4llvm12DenseMapBaseINS_8DenseMapIPKNS_12MachineInstrENS_19MachineTraceMetrics11InstrCyclesENS_12DenseMapInfoIS4_vEENS_6detail12DenseMapPairIS4_S6_EEEES4_S6_S8_SB_E6doFindIS4_EEPKSB_RKT_.exit.i.i
  %.sroa.0.0.i.i = phi i64 [ %.sroa.0.0.copyload.i.i, %_ZNK4llvm12DenseMapBaseINS_8DenseMapIPKNS_12MachineInstrENS_19MachineTraceMetrics11InstrCyclesENS_12DenseMapInfoIS4_vEENS_6detail12DenseMapPairIS4_S6_EEEES4_S6_S8_SB_E6doFindIS4_EEPKSB_RKT_.exit.i.i ], [ 0, %2 ], [ 0, %.lr.ph.i.i.i.i ]
  %.sroa.0.0.extract.trunc = trunc i64 %.sroa.0.0.i.i to i32
  %.sroa.2.0.extract.shift = lshr i64 %.sroa.0.0.i.i, 32
  %.sroa.2.0.extract.trunc = trunc nuw i64 %.sroa.2.0.extract.shift to i32
  %31 = getelementptr inbounds nuw i8, ptr %0, i64 8
  %32 = load ptr, ptr %31, align 8
  %33 = getelementptr inbounds nuw i8, ptr %32, i64 36
  %34 = load i32, ptr %33, align 4
  %35 = add i32 %.sroa.2.0.extract.trunc, %.sroa.0.0.extract.trunc
  %36 = sub i32 %34, %35
  ret i32 %36
}